; Function Attrs: mustprogress uwtable
define hidden void @_ZN3smt17theory_array_full10add_lambdaEiPNS_5enodeE(ptr noundef nonnull align 8 dereferenceable(608) %this, i32 noundef %v, ptr noundef %lam) local_unnamed_addr #3 align 2 personality ptr @__gxx_personality_v0 {
entry:
  %m_var_data = getelementptr inbounds i8, ptr %this, i64 256
  %0 = load ptr, ptr %m_var_data, align 8
  %idxprom.i = zext i32 %v to i64
  %arrayidx.i = getelementptr inbounds ptr, ptr %0, i64 %idxprom.i
  %1 = load ptr, ptr %arrayidx.i, align 8
  %vtable = load ptr, ptr %this, align 8
  %vfn = getelementptr inbounds i8, ptr %vtable, i64 400
  %2 = load ptr, ptr %vfn, align 8
  %call2 = tail call noundef i32 %2(ptr noundef nonnull align 8 dereferenceable(608) %this, i32 noundef %v, ptr noundef %1)
  %m_params = getelementptr inbounds i8, ptr %this, i64 264
  %3 = load ptr, ptr %m_params, align 8
  %m_array_always_prop_upward = getelementptr inbounds i8, ptr %3, i64 18
  %4 = load i8, ptr %m_array_always_prop_upward, align 2
  %5 = and i8 %4, 1
  %tobool = icmp ne i8 %5, 0
  %cmp = icmp ne i32 %call2, 0
  %or.cond = or i1 %cmp, %tobool
  br i1 %or.cond, label %if.then, label %if.end

if.then:                                          ; preds = %entry
  %vtable3 = load ptr, ptr %this, align 8
  %vfn4 = getelementptr inbounds i8, ptr %vtable3, i64 392
  %6 = load ptr, ptr %vfn4, align 8
  tail call void %6(ptr noundef nonnull align 8 dereferenceable(608) %this, i32 noundef %v, ptr noundef %1)
  br label %if.end

if.end:                                           ; preds = %entry, %if.then
  %m_var_data_full = getelementptr inbounds i8, ptr %this, i64 448
  %7 = load ptr, ptr %m_var_data_full, align 8
  %arrayidx.i7 = getelementptr inbounds ptr, ptr %7, i64 %idxprom.i
  %8 = load ptr, ptr %arrayidx.i7, align 8
  %m_lambdas = getelementptr inbounds i8, ptr %8, i64 24
  %m_trail_stack = getelementptr inbounds i8, ptr %this, i64 384
  %m_region.i = getelementptr inbounds i8, ptr %this, i64 400
  %call.i.i8 = tail call noundef ptr @_ZN6region8allocateEm(ptr noundef nonnull align 8 dereferenceable(40) %m_region.i, i64 noundef 16)
  store ptr getelementptr inbounds ({ [5 x ptr] }, ptr @_ZTV15push_back_trailIPN3smt5enodeELb0EE, i64 0, i32 0, i64 2), ptr %call.i.i8, align 8
  %m_vector.i.i = getelementptr inbounds i8, ptr %call.i.i8, i64 8
  store ptr %m_lambdas, ptr %m_vector.i.i, align 8
  %9 = load ptr, ptr %m_trail_stack, align 8
  %cmp.i.i = icmp eq ptr %9, null
  br i1 %cmp.i.i, label %if.then.i.i, label %lor.lhs.false.i.i

lor.lhs.false.i.i:                                ; preds = %if.end
  %arrayidx.i.i = getelementptr inbounds i8, ptr %9, i64 -4
  %10 = load i32, ptr %arrayidx.i.i, align 4
  %arrayidx4.i.i = getelementptr inbounds i8, ptr %9, i64 -8
  %11 = load i32, ptr %arrayidx4.i.i, align 4
  %cmp5.i.i = icmp eq i32 %10, %11
  br i1 %cmp5.i.i, label %if.then.i.i, label %invoke.cont

if.then.i.i:                                      ; preds = %lor.lhs.false.i.i, %if.end
  tail call void @_ZN6vectorIP5trailLb0EjE13expand_vectorEv(ptr noundef nonnull align 8 dereferenceable(8) %m_trail_stack)
  %.pre.i.i = load ptr, ptr %m_trail_stack, align 8
  %arrayidx8.phi.trans.insert.i.i = getelementptr inbounds i8, ptr %.pre.i.i, i64 -4
  %.pre1.i.i = load i32, ptr %arrayidx8.phi.trans.insert.i.i, align 4
  br label %invoke.cont

invoke.cont:                                      ; preds = %if.then.i.i, %lor.lhs.false.i.i
  %12 = phi i32 [ %.pre1.i.i, %if.then.i.i ], [ %10, %lor.lhs.false.i.i ]
  %13 = phi ptr [ %.pre.i.i, %if.then.i.i ], [ %9, %lor.lhs.false.i.i ]
  %idx.ext.i.i = zext i32 %12 to i64
  %add.ptr.i.i = getelementptr inbounds ptr, ptr %13, i64 %idx.ext.i.i
  store ptr %call.i.i8, ptr %add.ptr.i.i, align 8
  %14 = load ptr, ptr %m_trail_stack, align 8
  %arrayidx10.i.i = getelementptr inbounds i8, ptr %14, i64 -4
  %15 = load i32, ptr %arrayidx10.i.i, align 4
  %inc.i.i = add i32 %15, 1
  store i32 %inc.i.i, ptr %arrayidx10.i.i, align 4
  %16 = load ptr, ptr %m_lambdas, align 8
  %cmp.i = icmp eq ptr %16, null
  br i1 %cmp.i, label %if.then.i, label %lor.lhs.false.i

lor.lhs.false.i:                                  ; preds = %invoke.cont
  %arrayidx.i9 = getelementptr inbounds i8, ptr %16, i64 -4
  %17 = load i32, ptr %arrayidx.i9, align 4
  %arrayidx4.i = getelementptr inbounds i8, ptr %16, i64 -8
  %18 = load i32, ptr %arrayidx4.i, align 4
  %cmp5.i = icmp eq i32 %17, %18
  br i1 %cmp5.i, label %if.then.i, label %_ZN6vectorIPN3smt5enodeELb0EjE9push_backERKS2_.exit

if.then.i:                                        ; preds = %lor.lhs.false.i, %invoke.cont
  tail call void @_ZN6vectorIPN3smt5enodeELb0EjE13expand_vectorEv(ptr noundef nonnull align 8 dereferenceable(8) %m_lambdas)
  %.pre.i = load ptr, ptr %m_lambdas, align 8
  %arrayidx8.phi.trans.insert.i = getelementptr inbounds i8, ptr %.pre.i, i64 -4
  %.pre1.i = load i32, ptr %arrayidx8.phi.trans.insert.i, align 4
  br label %_ZN6vectorIPN3smt5enodeELb0EjE9push_backERKS2_.exit

_ZN6vectorIPN3smt5enodeELb0EjE9push_backERKS2_.exit: ; preds = %lor.lhs.false.i, %if.then.i
  %19 = phi i32 [ %.pre1.i, %if.then.i ], [ %17, %lor.lhs.false.i ]
  %20 = phi ptr [ %.pre.i, %if.then.i ], [ %16, %lor.lhs.false.i ]
  %idx.ext.i = zext i32 %19 to i64
  %add.ptr.i = getelementptr inbounds ptr, ptr %20, i64 %idx.ext.i
  store ptr %lam, ptr %add.ptr.i, align 8
  %21 = load ptr, ptr %m_lambdas, align 8
  %arrayidx10.i = getelementptr inbounds i8, ptr %21, i64 -4
  %22 = load i32, ptr %arrayidx10.i, align 4
  %inc.i = add i32 %22, 1
  store i32 %inc.i, ptr %arrayidx10.i, align 4
  %call7 = tail call noundef zeroext i1 @_ZN3smt17theory_array_full36instantiate_default_lambda_def_axiomEPNS_5enodeE(ptr noundef nonnull align 8 dereferenceable(608) %this, ptr noundef %lam)
  ret void
}